target datalayout = "e-m:e-p270:32:32-p271:32:32-p272:64:64-i64:64-i128:128-f80:128-n8:16:32:64-S128"
target triple = "x86_64-pc-linux-gnu"

%struct._zend_executor_globals = type { %struct._zval_struct, %struct._zval_struct, [32 x ptr], ptr, ptr, %struct._zend_array, %struct._zend_array, ptr, i32, i8, %struct._zval_struct, i32, ptr, ptr, ptr, ptr, ptr, ptr, i64, ptr, ptr, i32, ptr, i32, i64, i32, i32, i32, i8, i8, %struct.zend_atomic_bool_s, %struct.zend_atomic_bool_s, ptr, i64, ptr, ptr, %struct._zend_array, %struct._zend_array, i32, i8, %struct._zval_struct, %struct._zval_struct, %struct._zend_stack, %struct._zend_stack, %struct._zend_stack, ptr, i32, i32, i64, ptr, ptr, ptr, %struct._zend_objects_store, %struct._zend_lazy_objects_store, ptr, ptr, ptr, [3 x %struct._zend_op], ptr, i8, i8, i64, i32, i32, ptr, [16 x %struct._HashTableIterator], ptr, %union._zend_function, %struct._zend_op, %struct._zend_array, i64, %struct.zend_get_gc_buffer, ptr, ptr, ptr, i64, i8, i32, ptr, ptr, i64, %struct._zend_call_stack, i64, i64, %struct._zend_strtod_state, [6 x ptr] }
%struct.zend_atomic_bool_s = type { i8 }
%struct._zval_struct = type { %union._zend_value, %union.anon.9, %union.anon.12 }
%union._zend_value = type { i64 }
%union.anon.9 = type { i32 }
%union.anon.12 = type { i32 }
%struct._zend_stack = type { i32, i32, i32, ptr }
%struct._zend_objects_store = type { ptr, i32, i32, i32 }
%struct._zend_lazy_objects_store = type { %struct._zend_array }
%struct._HashTableIterator = type { ptr, i32, i32 }
%union._zend_function = type { %struct._zend_op_array }
%struct._zend_op_array = type { i8, [3 x i8], i32, ptr, ptr, ptr, i32, i32, ptr, ptr, ptr, ptr, i32, ptr, i32, i32, i32, ptr, ptr, ptr, ptr, ptr, i32, i32, ptr, ptr, ptr, i32, i32, i32, i32, ptr, ptr, [6 x ptr] }
%struct._zend_op = type { ptr, %union._znode_op, %union._znode_op, %union._znode_op, i32, i32, i8, i8, i8, i8 }
%union._znode_op = type { i32 }
%struct._zend_array = type { %struct._zend_refcounted_h, %union.anon.1, i32, %union.anon.2, i32, i32, i32, i32, i64, ptr }
%struct._zend_refcounted_h = type { i32, %union.anon.0 }
%union.anon.0 = type { i32 }
%union.anon.1 = type { i32 }
%union.anon.2 = type { ptr }
%struct.zend_get_gc_buffer = type { ptr, ptr, ptr }
%struct._zend_call_stack = type { ptr, i64 }
%struct._zend_strtod_state = type { [8 x ptr], ptr, ptr }
%struct._zend_object_handlers = type { i32, ptr, ptr, ptr, ptr, ptr, ptr, ptr, ptr, ptr, ptr, ptr, ptr, ptr, ptr, ptr, ptr, ptr, ptr, ptr, ptr, ptr, ptr, ptr, ptr }
%struct._zend_class_entry = type { i8, ptr, %union.anon, i32, i32, i32, i32, ptr, ptr, ptr, %struct._zend_array, %struct._zend_array, %struct._zend_array, ptr, ptr, ptr, ptr, ptr, ptr, ptr, ptr, ptr, ptr, ptr, ptr, ptr, ptr, ptr, ptr, ptr, ptr, ptr, %union.anon.3, ptr, ptr, ptr, ptr, i32, i32, i32, i32, %union.anon.4, ptr, ptr, ptr, ptr, i32, ptr, ptr, %union.anon.5 }
%union.anon = type { ptr }
%union.anon.3 = type { ptr }
%union.anon.4 = type { ptr }
%union.anon.5 = type { %struct.anon.6 }
%struct.anon.6 = type { ptr, i32, i32 }
%struct.reflection_object = type { %struct._zval_struct, ptr, ptr, i32, %struct._zend_object }
%struct._zend_object = type { %struct._zend_refcounted_h, i32, i32, ptr, ptr, ptr, [1 x %struct._zval_struct] }
%struct._zend_string = type { %struct._zend_refcounted_h, i64, i64, [1 x i8] }
%struct._zend_execute_data = type { ptr, ptr, ptr, ptr, %struct._zval_struct, ptr, ptr, ptr, ptr }
%struct.anon.13 = type { i8, [3 x i8], i32, ptr, ptr, ptr, i32, i32, ptr, ptr, ptr, ptr, i32, ptr }
%struct.anon.10 = type { i8, i8, %union.anon.11 }
%union.anon.11 = type { i16 }

@reflection_enum_ptr = dso_local global ptr null, align 8
@reflection_class_ptr = dso_local global ptr null, align 8
@reflection_exception_ptr = dso_local global ptr null, align 8
@executor_globals = external global %struct._zend_executor_globals, align 8
@.str.10 = private unnamed_addr constant [57 x i8] c"Internal error: Failed to retrieve the reflection object\00", align 1

; Function Attrs: alwaysinline nounwind uwtable
define internal i32 @zend_gc_addref(ptr noundef %0) #4 {
  %2 = alloca ptr, align 8
  store ptr %0, ptr %2, align 8, !tbaa !44
  br label %3

3:                                                ; preds = %1
  br label %4

4:                                                ; preds = %3
  %5 = load ptr, ptr %2, align 8, !tbaa !44
  %6 = getelementptr inbounds nuw %struct._zend_refcounted_h, ptr %5, i32 0, i32 0
  %7 = load i32, ptr %6, align 4, !tbaa !46
  %8 = add i32 %7, 1
  store i32 %8, ptr %6, align 4, !tbaa !46
  ret i32 %8
}

; Function Attrs: alwaysinline nounwind uwtable
define internal i32 @zval_gc_flags(i32 noundef %0) #4 {
  %2 = alloca i32, align 4
  store i32 %0, ptr %2, align 4, !tbaa !43
  %3 = load i32, ptr %2, align 4, !tbaa !43
  %4 = lshr i32 %3, 0
  %5 = and i32 %4, 1008
  ret i32 %5
}

; Function Attrs: alwaysinline nounwind uwtable
define internal ptr @reflection_prop_name(ptr noundef %0) #4 {
  %2 = alloca ptr, align 8
  store ptr %0, ptr %2, align 8, !tbaa !9
  %3 = load ptr, ptr %2, align 8, !tbaa !9
  %4 = getelementptr inbounds nuw %struct._zval_struct, ptr %3, i32 0, i32 0
  %5 = load ptr, ptr %4, align 8, !tbaa !29
  %6 = getelementptr inbounds nuw %struct._zend_object, ptr %5, i32 0, i32 3
  %7 = load ptr, ptr %6, align 8, !tbaa !41
  %8 = getelementptr inbounds nuw %struct._zend_class_entry, ptr %7, i32 0, i32 5
  %9 = load i32, ptr %8, align 8, !tbaa !42
  %10 = icmp sge i32 %9, 1
  call void @llvm.assume(i1 %10)
  %11 = load ptr, ptr %2, align 8, !tbaa !9
  %12 = getelementptr inbounds nuw %struct._zval_struct, ptr %11, i32 0, i32 0
  %13 = load ptr, ptr %12, align 8, !tbaa !29
  %14 = getelementptr inbounds nuw %struct._zend_object, ptr %13, i32 0, i32 6
  %15 = getelementptr inbounds [1 x %struct._zval_struct], ptr %14, i64 0, i64 0
  ret ptr %15
}

; Function Attrs: nounwind uwtable
define dso_local void @zend_reflection_class_factory(ptr noundef %0, ptr noundef %1) #0 {
  %3 = alloca ptr, align 8
  %4 = alloca ptr, align 8
  %5 = alloca ptr, align 8
  %6 = alloca ptr, align 8
  %7 = alloca ptr, align 8
  %8 = alloca ptr, align 8
  store ptr %0, ptr %3, align 8, !tbaa !4
  store ptr %1, ptr %4, align 8, !tbaa !9
  call void @llvm.lifetime.start.p0(i64 8, ptr %5) #14
  call void @llvm.lifetime.start.p0(i64 8, ptr %6) #14
  %9 = load ptr, ptr %3, align 8, !tbaa !4
  %10 = getelementptr inbounds nuw %struct._zend_class_entry, ptr %9, i32 0, i32 4
  %11 = load i32, ptr %10, align 4, !tbaa !11
  %12 = and i32 %11, 268435456
  %13 = icmp ne i32 %12, 0
  br i1 %13, label %14, label %16

14:                                               ; preds = %2
  %15 = load ptr, ptr @reflection_enum_ptr, align 8, !tbaa !4
  br label %18

16:                                               ; preds = %2
  %17 = load ptr, ptr @reflection_class_ptr, align 8, !tbaa !4
  br label %18

18:                                               ; preds = %16, %14
  %19 = phi ptr [ %15, %14 ], [ %17, %16 ]
  store ptr %19, ptr %6, align 8, !tbaa !4
  %20 = load ptr, ptr %4, align 8, !tbaa !9
  %21 = load ptr, ptr %6, align 8, !tbaa !4
  %22 = call i32 @object_init_ex(ptr noundef %20, ptr noundef %21)
  %23 = load ptr, ptr %4, align 8, !tbaa !9
  %24 = getelementptr inbounds nuw %struct._zval_struct, ptr %23, i32 0, i32 0
  %25 = load ptr, ptr %24, align 8, !tbaa !29
  %26 = call ptr @reflection_object_from_obj(ptr noundef %25)
  store ptr %26, ptr %5, align 8, !tbaa !30
  %27 = load ptr, ptr %3, align 8, !tbaa !4
  %28 = load ptr, ptr %5, align 8, !tbaa !30
  %29 = getelementptr inbounds nuw %struct.reflection_object, ptr %28, i32 0, i32 1
  store ptr %27, ptr %29, align 8, !tbaa !31
  %30 = load ptr, ptr %5, align 8, !tbaa !30
  %31 = getelementptr inbounds nuw %struct.reflection_object, ptr %30, i32 0, i32 3
  store i32 0, ptr %31, align 8, !tbaa !35
  %32 = load ptr, ptr %3, align 8, !tbaa !4
  %33 = load ptr, ptr %5, align 8, !tbaa !30
  %34 = getelementptr inbounds nuw %struct.reflection_object, ptr %33, i32 0, i32 2
  store ptr %32, ptr %34, align 8, !tbaa !36
  br label %35

35:                                               ; preds = %18
  call void @llvm.lifetime.start.p0(i64 8, ptr %7) #14
  %36 = load ptr, ptr %4, align 8, !tbaa !9
  %37 = call ptr @reflection_prop_name(ptr noundef %36)
  store ptr %37, ptr %7, align 8, !tbaa !9
  call void @llvm.lifetime.start.p0(i64 8, ptr %8) #14
  %38 = load ptr, ptr %3, align 8, !tbaa !4
  %39 = getelementptr inbounds nuw %struct._zend_class_entry, ptr %38, i32 0, i32 1
  %40 = load ptr, ptr %39, align 8, !tbaa !37
  store ptr %40, ptr %8, align 8, !tbaa !38
  %41 = load ptr, ptr %8, align 8, !tbaa !38
  %42 = load ptr, ptr %7, align 8, !tbaa !9
  %43 = getelementptr inbounds nuw %struct._zval_struct, ptr %42, i32 0, i32 0
  store ptr %41, ptr %43, align 8, !tbaa !29
  %44 = load ptr, ptr %8, align 8, !tbaa !38
  %45 = getelementptr inbounds nuw %struct._zend_string, ptr %44, i32 0, i32 0
  %46 = getelementptr inbounds nuw %struct._zend_refcounted_h, ptr %45, i32 0, i32 1
  %47 = load i32, ptr %46, align 4, !tbaa !29
  %48 = call i32 @zval_gc_flags(i32 noundef %47)
  %49 = and i32 %48, 64
  %50 = icmp ne i32 %49, 0
  br i1 %50, label %51, label %54

51:                                               ; preds = %35
  %52 = load ptr, ptr %7, align 8, !tbaa !9
  %53 = getelementptr inbounds nuw %struct._zval_struct, ptr %52, i32 0, i32 1
  store i32 6, ptr %53, align 8, !tbaa !29
  br label %60

54:                                               ; preds = %35
  %55 = load ptr, ptr %8, align 8, !tbaa !38
  %56 = getelementptr inbounds nuw %struct._zend_string, ptr %55, i32 0, i32 0
  %57 = call i32 @zend_gc_addref(ptr noundef %56)
  %58 = load ptr, ptr %7, align 8, !tbaa !9
  %59 = getelementptr inbounds nuw %struct._zval_struct, ptr %58, i32 0, i32 1
  store i32 262, ptr %59, align 8, !tbaa !29
  br label %60

60:                                               ; preds = %54, %51
  call void @llvm.lifetime.end.p0(i64 8, ptr %8) #14
  call void @llvm.lifetime.end.p0(i64 8, ptr %7) #14
  br label %61

61:                                               ; preds = %60
  br label %62

62:                                               ; preds = %61
  call void @llvm.lifetime.end.p0(i64 8, ptr %6) #14
  call void @llvm.lifetime.end.p0(i64 8, ptr %5) #14
  ret void
}

; Function Attrs: alwaysinline nounwind uwtable
define internal zeroext i8 @zval_get_type(ptr noundef %0) #4 {
  %2 = alloca ptr, align 8
  store ptr %0, ptr %2, align 8, !tbaa !9
  %3 = load ptr, ptr %2, align 8, !tbaa !9
  %4 = getelementptr inbounds nuw %struct._zval_struct, ptr %3, i32 0, i32 1
  %5 = getelementptr inbounds nuw %struct.anon.10, ptr %4, i32 0, i32 0
  %6 = load i8, ptr %5, align 8, !tbaa !29
  ret i8 %6
}

; Function Attrs: inlinehint nounwind uwtable
define internal ptr @reflection_object_from_obj(ptr noundef %0) #3 {
  %2 = alloca ptr, align 8
  store ptr %0, ptr %2, align 8, !tbaa !39
  %3 = load ptr, ptr %2, align 8, !tbaa !39
  %4 = getelementptr inbounds i8, ptr %3, i64 -40
  ret ptr %4
}

; Function Attrs: nounwind uwtable
define hidden void @zim_ReflectionFunctionAbstract_getClosureCalledClass(ptr noundef %0, ptr noundef %1) #0 {
  %3 = alloca ptr, align 8
  %4 = alloca ptr, align 8
  %5 = alloca ptr, align 8
  %6 = alloca i32, align 4
  %7 = alloca ptr, align 8
  %8 = alloca ptr, align 8
  %9 = alloca ptr, align 8
  store ptr %0, ptr %3, align 8, !tbaa !47
  store ptr %1, ptr %4, align 8, !tbaa !9
  call void @llvm.lifetime.start.p0(i64 8, ptr %5) #14
  br label %10

10:                                               ; preds = %2
  %11 = load ptr, ptr %3, align 8, !tbaa !47
  %12 = getelementptr inbounds nuw %struct._zend_execute_data, ptr %11, i32 0, i32 4
  %13 = getelementptr inbounds nuw %struct._zval_struct, ptr %12, i32 0, i32 2
  %14 = load i32, ptr %13, align 4, !tbaa !29
  %15 = icmp ne i32 %14, 0
  %16 = xor i1 %15, true
  %17 = xor i1 %16, true
  %18 = zext i1 %17 to i32
  %19 = sext i32 %18 to i64
  %20 = call i64 @llvm.expect.i64(i64 %19, i64 0)
  %21 = icmp ne i64 %20, 0
  br i1 %21, label %22, label %23

22:                                               ; preds = %10
  call void @zend_wrong_parameters_none_error()
  store i32 1, ptr %6, align 4
  br label %115

23:                                               ; preds = %10
  br label %24

24:                                               ; preds = %23
  br label %25

25:                                               ; preds = %24
  br label %26

26:                                               ; preds = %25
  %27 = load ptr, ptr %3, align 8, !tbaa !47
  %28 = getelementptr inbounds nuw %struct._zend_execute_data, ptr %27, i32 0, i32 4
  %29 = getelementptr inbounds nuw %struct._zval_struct, ptr %28, i32 0, i32 0
  %30 = load ptr, ptr %29, align 8, !tbaa !29
  %31 = call ptr @reflection_object_from_obj(ptr noundef %30)
  store ptr %31, ptr %5, align 8, !tbaa !30
  %32 = load ptr, ptr %5, align 8, !tbaa !30
  %33 = getelementptr inbounds nuw %struct.reflection_object, ptr %32, i32 0, i32 1
  %34 = load ptr, ptr %33, align 8, !tbaa !31
  %35 = icmp eq ptr %34, null
  br i1 %35, label %36, label %57

36:                                               ; preds = %26
  %37 = load ptr, ptr getelementptr inbounds nuw (%struct._zend_executor_globals, ptr @executor_globals, i32 0, i32 54), align 8, !tbaa !49
  %38 = icmp ne ptr %37, null
  br i1 %38, label %39, label %51

39:                                               ; preds = %36
  %40 = load ptr, ptr getelementptr inbounds nuw (%struct._zend_executor_globals, ptr @executor_globals, i32 0, i32 54), align 8, !tbaa !49
  %41 = getelementptr inbounds nuw %struct._zend_object, ptr %40, i32 0, i32 3
  %42 = load ptr, ptr %41, align 8, !tbaa !41
  %43 = load ptr, ptr @reflection_exception_ptr, align 8, !tbaa !4
  %44 = icmp eq ptr %42, %43
  br i1 %44, label %45, label %51

45:                                               ; preds = %39
  br label %46

46:                                               ; preds = %45
  %47 = load ptr, ptr getelementptr inbounds nuw (%struct._zend_executor_globals, ptr @executor_globals, i32 0, i32 54), align 8, !tbaa !49
  %48 = icmp ne ptr %47, null
  call void @llvm.assume(i1 %48)
  store i32 1, ptr %6, align 4
  br label %115

49:                                               ; No predecessors!
  br label %50

50:                                               ; preds = %49
  br label %51

51:                                               ; preds = %50, %39, %36
  call void (ptr, ptr, ...) @zend_throw_error(ptr noundef null, ptr noundef @.str.10)
  br label %52

52:                                               ; preds = %51
  %53 = load ptr, ptr getelementptr inbounds nuw (%struct._zend_executor_globals, ptr @executor_globals, i32 0, i32 54), align 8, !tbaa !49
  %54 = icmp ne ptr %53, null
  call void @llvm.assume(i1 %54)
  store i32 1, ptr %6, align 4
  br label %115

55:                                               ; No predecessors!
  br label %56

56:                                               ; preds = %55
  br label %57

57:                                               ; preds = %56, %26
  br label %58

58:                                               ; preds = %57
  br label %59

59:                                               ; preds = %58
  %60 = load ptr, ptr %5, align 8, !tbaa !30
  %61 = getelementptr inbounds nuw %struct.reflection_object, ptr %60, i32 0, i32 0
  %62 = call zeroext i8 @zval_get_type(ptr noundef %61)
  %63 = zext i8 %62 to i32
  %64 = icmp eq i32 %63, 0
  br i1 %64, label %114, label %65

65:                                               ; preds = %59
  call void @llvm.lifetime.start.p0(i64 8, ptr %7) #14
  call void @llvm.lifetime.start.p0(i64 8, ptr %8) #14
  call void @llvm.lifetime.start.p0(i64 8, ptr %9) #14
  %66 = load ptr, ptr %5, align 8, !tbaa !30
  %67 = getelementptr inbounds nuw %struct.reflection_object, ptr %66, i32 0, i32 0
  %68 = getelementptr inbounds nuw %struct._zval_struct, ptr %67, i32 0, i32 0
  %69 = load ptr, ptr %68, align 8, !tbaa !29
  %70 = getelementptr inbounds nuw %struct._zend_object, ptr %69, i32 0, i32 4
  %71 = load ptr, ptr %70, align 8, !tbaa !100
  %72 = getelementptr inbounds nuw %struct._zend_object_handlers, ptr %71, i32 0, i32 20
  %73 = load ptr, ptr %72, align 8, !tbaa !101
  %74 = icmp ne ptr %73, null
  br i1 %74, label %75, label %113

75:                                               ; preds = %65
  %76 = load ptr, ptr %5, align 8, !tbaa !30
  %77 = getelementptr inbounds nuw %struct.reflection_object, ptr %76, i32 0, i32 0
  %78 = getelementptr inbounds nuw %struct._zval_struct, ptr %77, i32 0, i32 0
  %79 = load ptr, ptr %78, align 8, !tbaa !29
  %80 = getelementptr inbounds nuw %struct._zend_object, ptr %79, i32 0, i32 4
  %81 = load ptr, ptr %80, align 8, !tbaa !100
  %82 = getelementptr inbounds nuw %struct._zend_object_handlers, ptr %81, i32 0, i32 20
  %83 = load ptr, ptr %82, align 8, !tbaa !101
  %84 = load ptr, ptr %5, align 8, !tbaa !30
  %85 = getelementptr inbounds nuw %struct.reflection_object, ptr %84, i32 0, i32 0
  %86 = getelementptr inbounds nuw %struct._zval_struct, ptr %85, i32 0, i32 0
  %87 = load ptr, ptr %86, align 8, !tbaa !29
  %88 = call i32 %83(ptr noundef %87, ptr noundef %7, ptr noundef %8, ptr noundef %9, i1 noundef zeroext true)
  %89 = icmp eq i32 %88, 0
  br i1 %89, label %90, label %113

90:                                               ; preds = %75
  %91 = load ptr, ptr %8, align 8, !tbaa !81
  %92 = icmp ne ptr %91, null
  br i1 %92, label %93, label %113

93:                                               ; preds = %90
  %94 = load ptr, ptr %7, align 8, !tbaa !4
  %95 = icmp ne ptr %94, null
  br i1 %95, label %101, label %96

96:                                               ; preds = %93
  %97 = load ptr, ptr %8, align 8, !tbaa !81
  %98 = getelementptr inbounds nuw %struct.anon.13, ptr %97, i32 0, i32 4
  %99 = load ptr, ptr %98, align 8, !tbaa !29
  %100 = icmp ne ptr %99, null
  br i1 %100, label %101, label %113

101:                                              ; preds = %96, %93
  %102 = load ptr, ptr %7, align 8, !tbaa !4
  %103 = icmp ne ptr %102, null
  br i1 %103, label %104, label %106

104:                                              ; preds = %101
  %105 = load ptr, ptr %7, align 8, !tbaa !4
  br label %110

106:                                              ; preds = %101
  %107 = load ptr, ptr %8, align 8, !tbaa !81
  %108 = getelementptr inbounds nuw %struct.anon.13, ptr %107, i32 0, i32 4
  %109 = load ptr, ptr %108, align 8, !tbaa !29
  br label %110

110:                                              ; preds = %106, %104
  %111 = phi ptr [ %105, %104 ], [ %109, %106 ]
  %112 = load ptr, ptr %4, align 8, !tbaa !9
  call void @zend_reflection_class_factory(ptr noundef %111, ptr noundef %112)
  br label %113

113:                                              ; preds = %110, %96, %90, %75, %65
  call void @llvm.lifetime.end.p0(i64 8, ptr %9) #14
  call void @llvm.lifetime.end.p0(i64 8, ptr %8) #14
  call void @llvm.lifetime.end.p0(i64 8, ptr %7) #14
  br label %114

114:                                              ; preds = %113, %59
  store i32 0, ptr %6, align 4
  br label %115

115:                                              ; preds = %114, %52, %46, %22
  call void @llvm.lifetime.end.p0(i64 8, ptr %5) #14
  %116 = load i32, ptr %6, align 4
  switch i32 %116, label %118 [
    i32 0, label %117
    i32 1, label %117
  ]

117:                                              ; preds = %115, %115
  ret void

118:                                              ; preds = %115
  unreachable
}