; Function Attrs: nounwind uwtable
define hidden void @zim_ReflectionFunctionAbstract_getClosureCalledClass(ptr noundef readonly captures(none) %0, ptr noundef %1) #0 {
  %3 = alloca ptr, align 8
  %4 = alloca ptr, align 8
  %5 = alloca ptr, align 8
  %6 = getelementptr inbounds nuw i8, ptr %0, i64 44
  %7 = load i32, ptr %6, align 4, !tbaa !26
  %.not = icmp eq i32 %7, 0
  br i1 %.not, label %9, label %8, !prof !70

8:                                                ; preds = %2
  tail call void @zend_wrong_parameters_none_error() #13
  br label %76

9:                                                ; preds = %2
  %10 = getelementptr inbounds nuw i8, ptr %0, i64 32
  %11 = load ptr, ptr %10, align 8, !tbaa !26
  %12 = getelementptr inbounds i8, ptr %11, i64 -40
  %13 = getelementptr inbounds i8, ptr %11, i64 -24
  %14 = load ptr, ptr %13, align 8, !tbaa !27
  %15 = icmp eq ptr %14, null
  br i1 %15, label %16, label %26

16:                                               ; preds = %9
  %17 = load ptr, ptr getelementptr inbounds nuw (i8, ptr @executor_globals, i64 960), align 8, !tbaa !39
  %.not16 = icmp eq ptr %17, null
  br i1 %.not16, label %23, label %18

18:                                               ; preds = %16
  %19 = getelementptr inbounds nuw i8, ptr %17, i64 16
  %20 = load ptr, ptr %19, align 8, !tbaa !34
  %21 = load ptr, ptr @reflection_exception_ptr, align 8, !tbaa !38
  %22 = icmp eq ptr %20, %21
  br i1 %22, label %76, label %23

23:                                               ; preds = %18, %16
  tail call void (ptr, ptr, ...) @zend_throw_error(ptr noundef null, ptr noundef nonnull @.str.10) #13
  %24 = load ptr, ptr getelementptr inbounds nuw (i8, ptr @executor_globals, i64 960), align 8, !tbaa !39
  %25 = icmp ne ptr %24, null
  tail call void @llvm.assume(i1 %25)
  br label %76

26:                                               ; preds = %9
  %27 = getelementptr inbounds i8, ptr %11, i64 -32
  %28 = load i8, ptr %27, align 8, !tbaa !26
  %29 = icmp eq i8 %28, 0
  br i1 %29, label %76, label %30

30:                                               ; preds = %26
  call void @llvm.lifetime.start.p0(i64 8, ptr nonnull %3) #13
  call void @llvm.lifetime.start.p0(i64 8, ptr nonnull %4) #13
  call void @llvm.lifetime.start.p0(i64 8, ptr nonnull %5) #13
  %31 = load ptr, ptr %12, align 8, !tbaa !26
  %32 = getelementptr inbounds nuw i8, ptr %31, i64 24
  %33 = load ptr, ptr %32, align 8, !tbaa !114
  %34 = getelementptr inbounds nuw i8, ptr %33, i64 160
  %35 = load ptr, ptr %34, align 8, !tbaa !115
  %.not12 = icmp eq ptr %35, null
  br i1 %.not12, label %75, label %36

36:                                               ; preds = %30
  %37 = call i32 %35(ptr noundef nonnull %31, ptr noundef nonnull %3, ptr noundef nonnull %4, ptr noundef nonnull %5, i1 noundef zeroext true) #13
  %38 = icmp eq i32 %37, 0
  %39 = load ptr, ptr %4, align 8
  %40 = icmp ne ptr %39, null
  %or.cond = select i1 %38, i1 %40, i1 false
  br i1 %or.cond, label %41, label %75

41:                                               ; preds = %36
  %42 = load ptr, ptr %3, align 8, !tbaa !38
  %.not13 = icmp eq ptr %42, null
  br i1 %.not13, label %43, label %46

43:                                               ; preds = %41
  %44 = getelementptr inbounds nuw i8, ptr %39, i64 16
  %45 = load ptr, ptr %44, align 8, !tbaa !26
  %.not14 = icmp eq ptr %45, null
  br i1 %.not14, label %75, label %46

46:                                               ; preds = %43, %41
  %47 = phi ptr [ %42, %41 ], [ %45, %43 ]
  %48 = getelementptr inbounds nuw i8, ptr %47, i64 28
  %49 = load i32, ptr %48, align 4, !tbaa !4
  %50 = and i32 %49, 268435456
  %.not.i = icmp eq i32 %50, 0
  %51 = load ptr, ptr @reflection_enum_ptr, align 8
  %52 = load ptr, ptr @reflection_class_ptr, align 8
  %53 = select i1 %.not.i, ptr %52, ptr %51
  %54 = call i32 @object_init_ex(ptr noundef %1, ptr noundef %53) #13
  %55 = load ptr, ptr %1, align 8, !tbaa !26
  %56 = getelementptr inbounds i8, ptr %55, i64 -24
  store ptr %47, ptr %56, align 8, !tbaa !27
  %57 = getelementptr inbounds i8, ptr %55, i64 -8
  store i32 0, ptr %57, align 8, !tbaa !32
  %58 = getelementptr inbounds i8, ptr %55, i64 -16
  store ptr %47, ptr %58, align 8, !tbaa !33
  %59 = load ptr, ptr %1, align 8, !tbaa !26
  %60 = getelementptr inbounds nuw i8, ptr %59, i64 16
  %61 = load ptr, ptr %60, align 8, !tbaa !34
  %62 = getelementptr inbounds nuw i8, ptr %61, i64 32
  %63 = load i32, ptr %62, align 8, !tbaa !35
  %64 = icmp sgt i32 %63, 0
  call void @llvm.assume(i1 %64)
  %65 = getelementptr inbounds nuw i8, ptr %59, i64 40
  %66 = getelementptr inbounds nuw i8, ptr %47, i64 8
  %67 = load ptr, ptr %66, align 8, !tbaa !36
  store ptr %67, ptr %65, align 8, !tbaa !26
  %68 = getelementptr inbounds nuw i8, ptr %67, i64 4
  %69 = load i32, ptr %68, align 4, !tbaa !26
  %70 = and i32 %69, 64
  %.not17.i = icmp eq i32 %70, 0
  br i1 %.not17.i, label %71, label %zend_reflection_class_factory.exit

71:                                               ; preds = %46
  %72 = load i32, ptr %67, align 4, !tbaa !37
  %73 = add i32 %72, 1
  store i32 %73, ptr %67, align 4, !tbaa !37
  br label %zend_reflection_class_factory.exit

zend_reflection_class_factory.exit:               ; preds = %46, %71
  %.sink.i = phi i32 [ 262, %71 ], [ 6, %46 ]
  %74 = getelementptr inbounds nuw i8, ptr %59, i64 48
  store i32 %.sink.i, ptr %74, align 8, !tbaa !26
  br label %75

75:                                               ; preds = %zend_reflection_class_factory.exit, %43, %36, %30
  call void @llvm.lifetime.end.p0(i64 8, ptr nonnull %5) #13
  call void @llvm.lifetime.end.p0(i64 8, ptr nonnull %4) #13
  call void @llvm.lifetime.end.p0(i64 8, ptr nonnull %3) #13
  br label %76

76:                                               ; preds = %26, %75, %18, %23, %8
  ret void
}